target datalayout = "e-m:e-p270:32:32-p271:32:32-p272:64:64-i64:64-i128:128-f80:128-n8:16:32:64-S128"
target triple = "x86_64-pc-linux-gnu"

%struct.expert_field = type { i32, i32 }
%struct._address = type { i32, i32, ptr, ptr }
%struct._packet_info = type { ptr, ptr, i32, i32, %struct.nstime_t, %struct.nstime_t, %struct.nstime_t, i8, ptr, ptr, ptr, ptr, %struct._address, %struct._address, %struct._address, %struct._address, %struct._address, %struct._address, i32, ptr, i8, [3 x i8], %struct.anon, i32, i32, i32, i32, ptr, i8, ptr, ptr, i16, i16, i32, i32, i16, i32, i32, ptr, ptr, ptr, i8, i8, i16, i16, i16, i32, i16, i16, ptr, ptr, ptr, ptr, ptr, i32, i32 }
%struct.nstime_t = type { i64, i32 }
%struct.anon = type { i8, [3 x i8] }
%struct._frame_data = type <{ i32, i32, i32, i32, i32, [4 x i8], i64, ptr, ptr, ptr, i8, i16, [5 x i8], %struct.nstime_t, %struct.nstime_t, i32, i32 }>

@ei_iscsi_keyvalue_invalid = internal global %struct.expert_field zeroinitializer, align 4
@iscsi_handle = internal global ptr null, align 8
@.str.566 = private unnamed_addr constant [17 x i8] c"Invalid port: %s\00", align 1
@null_address = internal global %struct._address zeroinitializer, align 8

; Function Attrs: inlinehint nounwind null_pointer_is_valid sspstrong uwtable
define internal zeroext i1 @addresses_equal(ptr noundef %0, ptr noundef %1) #7 {
  %3 = alloca i1, align 1
  %4 = alloca ptr, align 8
  %5 = alloca ptr, align 8
  store ptr %0, ptr %4, align 8
  store ptr %1, ptr %5, align 8
  %6 = load ptr, ptr %4, align 8
  %7 = getelementptr inbounds nuw %struct._address, ptr %6, i32 0, i32 0
  %8 = load i32, ptr %7, align 8
  %9 = load ptr, ptr %5, align 8
  %10 = getelementptr inbounds nuw %struct._address, ptr %9, i32 0, i32 0
  %11 = load i32, ptr %10, align 8
  %12 = icmp eq i32 %8, %11
  br i1 %12, label %13, label %40

13:                                               ; preds = %2
  %14 = load ptr, ptr %4, align 8
  %15 = getelementptr inbounds nuw %struct._address, ptr %14, i32 0, i32 1
  %16 = load i32, ptr %15, align 4
  %17 = load ptr, ptr %5, align 8
  %18 = getelementptr inbounds nuw %struct._address, ptr %17, i32 0, i32 1
  %19 = load i32, ptr %18, align 4
  %20 = icmp eq i32 %16, %19
  br i1 %20, label %21, label %40

21:                                               ; preds = %13
  %22 = load ptr, ptr %4, align 8
  %23 = getelementptr inbounds nuw %struct._address, ptr %22, i32 0, i32 1
  %24 = load i32, ptr %23, align 4
  %25 = icmp eq i32 %24, 0
  br i1 %25, label %39, label %26

26:                                               ; preds = %21
  %27 = load ptr, ptr %4, align 8
  %28 = getelementptr inbounds nuw %struct._address, ptr %27, i32 0, i32 2
  %29 = load ptr, ptr %28, align 8
  %30 = load ptr, ptr %5, align 8
  %31 = getelementptr inbounds nuw %struct._address, ptr %30, i32 0, i32 2
  %32 = load ptr, ptr %31, align 8
  %33 = load ptr, ptr %4, align 8
  %34 = getelementptr inbounds nuw %struct._address, ptr %33, i32 0, i32 1
  %35 = load i32, ptr %34, align 4
  %36 = sext i32 %35 to i64
  %37 = call i32 @memcmp(ptr noundef %29, ptr noundef %32, i64 noundef %36) #14
  %38 = icmp eq i32 %37, 0
  br i1 %38, label %39, label %40

39:                                               ; preds = %26, %21
  store i1 true, ptr %3, align 1
  br label %41

40:                                               ; preds = %26, %13, %2
  store i1 false, ptr %3, align 1
  br label %41

41:                                               ; preds = %40, %39
  %42 = load i1, ptr %3, align 1
  ret i1 %42
}

; Function Attrs: inlinehint nounwind null_pointer_is_valid sspstrong uwtable
define internal void @set_address(ptr noundef %0, i32 noundef %1, i32 noundef %2, ptr noundef %3) #7 {
  %5 = alloca ptr, align 8
  %6 = alloca i32, align 4
  %7 = alloca i32, align 4
  %8 = alloca ptr, align 8
  store ptr %0, ptr %5, align 8
  store i32 %1, ptr %6, align 4
  store i32 %2, ptr %7, align 4
  store ptr %3, ptr %8, align 8
  %9 = load i32, ptr %7, align 4
  %10 = icmp eq i32 %9, 0
  br i1 %10, label %11, label %14

11:                                               ; preds = %4
  br label %12

12:                                               ; preds = %11
  br label %13

13:                                               ; preds = %12
  br label %19

14:                                               ; preds = %4
  br label %15

15:                                               ; preds = %14
  br label %16

16:                                               ; preds = %15
  br label %17

17:                                               ; preds = %16
  br label %18

18:                                               ; preds = %17
  br label %19

19:                                               ; preds = %18, %13
  %20 = load i32, ptr %6, align 4
  %21 = load ptr, ptr %5, align 8
  %22 = getelementptr inbounds nuw %struct._address, ptr %21, i32 0, i32 0
  store i32 %20, ptr %22, align 8
  %23 = load i32, ptr %7, align 4
  %24 = load ptr, ptr %5, align 8
  %25 = getelementptr inbounds nuw %struct._address, ptr %24, i32 0, i32 1
  store i32 %23, ptr %25, align 4
  %26 = load ptr, ptr %8, align 8
  %27 = load ptr, ptr %5, align 8
  %28 = getelementptr inbounds nuw %struct._address, ptr %27, i32 0, i32 2
  store ptr %26, ptr %28, align 8
  %29 = load ptr, ptr %5, align 8
  %30 = getelementptr inbounds nuw %struct._address, ptr %29, i32 0, i32 3
  store ptr null, ptr %30, align 8
  ret void
}

; Function Attrs: null_pointer_is_valid sspstrong uwtable
define internal void @iscsi_dissect_TargetAddress(ptr noundef %0, ptr noundef %1, ptr noundef %2, i32 noundef %3) #0 {
  %5 = alloca ptr, align 8
  %6 = alloca ptr, align 8
  %7 = alloca ptr, align 8
  %8 = alloca i32, align 4
  %9 = alloca %struct._address, align 8
  %10 = alloca i16, align 2
  %11 = alloca i32, align 4
  %12 = alloca i32, align 4
  %13 = alloca ptr, align 8
  %14 = alloca ptr, align 8
  %15 = alloca i32, align 4
  %16 = alloca ptr, align 8
  %17 = alloca ptr, align 8
  %18 = alloca i32, align 4
  %19 = alloca ptr, align 8
  store ptr %0, ptr %5, align 8
  store ptr %1, ptr %6, align 8
  store ptr %2, ptr %7, align 8
  store i32 %3, ptr %8, align 4
  call void @llvm.lifetime.start.p0(i64 24, ptr %9) #11
  call void @llvm.memset.p0.i64(ptr align 8 %9, i8 0, i64 24, i1 false)
  call void @llvm.lifetime.start.p0(i64 2, ptr %10) #11
  call void @llvm.lifetime.start.p0(i64 4, ptr %11) #11
  call void @llvm.lifetime.start.p0(i64 4, ptr %12) #11
  call void @llvm.lifetime.start.p0(i64 8, ptr %13) #11
  call void @llvm.lifetime.start.p0(i64 8, ptr %14) #11
  %20 = load ptr, ptr %6, align 8
  %21 = load i32, ptr %8, align 4
  %22 = call i32 @tvb_find_uint8(ptr noundef %20, i32 noundef %21, i32 noundef -1, i8 noundef zeroext 58)
  store i32 %22, ptr %11, align 4
  %23 = load i32, ptr %11, align 4
  %24 = icmp eq i32 %23, -1
  br i1 %24, label %25, label %26

25:                                               ; preds = %4
  store i32 1, ptr %15, align 4
  br label %154

26:                                               ; preds = %4
  %27 = load ptr, ptr %6, align 8
  %28 = load i32, ptr %8, align 4
  %29 = call zeroext i8 @tvb_get_uint8(ptr noundef %27, i32 noundef %28)
  %30 = zext i8 %29 to i32
  %31 = icmp eq i32 %30, 91
  br i1 %31, label %32, label %68

32:                                               ; preds = %26
  %33 = load i32, ptr %8, align 4
  %34 = add i32 %33, 1
  store i32 %34, ptr %8, align 4
  %35 = load ptr, ptr %6, align 8
  %36 = load i32, ptr %8, align 4
  %37 = call i32 @tvb_find_uint8(ptr noundef %35, i32 noundef %36, i32 noundef -1, i8 noundef zeroext 93)
  store i32 %37, ptr %12, align 4
  %38 = load i32, ptr %12, align 4
  %39 = icmp eq i32 %38, -1
  br i1 %39, label %40, label %41

40:                                               ; preds = %32
  store i32 1, ptr %15, align 4
  br label %154

41:                                               ; preds = %32
  %42 = load ptr, ptr %6, align 8
  %43 = load i32, ptr %12, align 4
  %44 = call i32 @tvb_find_uint8(ptr noundef %42, i32 noundef %43, i32 noundef -1, i8 noundef zeroext 58)
  store i32 %44, ptr %11, align 4
  %45 = load i32, ptr %11, align 4
  %46 = icmp eq i32 %45, -1
  br i1 %46, label %47, label %48

47:                                               ; preds = %41
  store i32 1, ptr %15, align 4
  br label %154

48:                                               ; preds = %41
  call void @llvm.lifetime.start.p0(i64 8, ptr %16) #11
  %49 = load ptr, ptr %5, align 8
  %50 = getelementptr inbounds nuw %struct._packet_info, ptr %49, i32 0, i32 51
  %51 = load ptr, ptr %50, align 8
  %52 = call noalias ptr @wmem_alloc(ptr noundef %51, i64 noundef 16) #12
  store ptr %52, ptr %16, align 8
  %53 = load ptr, ptr %5, align 8
  %54 = getelementptr inbounds nuw %struct._packet_info, ptr %53, i32 0, i32 51
  %55 = load ptr, ptr %54, align 8
  %56 = load ptr, ptr %6, align 8
  %57 = load i32, ptr %8, align 4
  %58 = load i32, ptr %12, align 4
  %59 = load i32, ptr %8, align 4
  %60 = sub i32 %58, %59
  %61 = call ptr @tvb_get_string_enc(ptr noundef %55, ptr noundef %56, i32 noundef %57, i32 noundef %60, i32 noundef 0)
  store ptr %61, ptr %13, align 8
  %62 = load ptr, ptr %13, align 8
  %63 = load ptr, ptr %16, align 8
  %64 = call zeroext i1 @ws_inet_pton6(ptr noundef %62, ptr noundef %63)
  br i1 %64, label %65, label %67

65:                                               ; preds = %48
  %66 = load ptr, ptr %16, align 8
  call void @set_address(ptr noundef %9, i32 noundef 3, i32 noundef 16, ptr noundef %66)
  br label %67

67:                                               ; preds = %65, %48
  call void @llvm.lifetime.end.p0(i64 8, ptr %16) #11
  br label %88

68:                                               ; preds = %26
  %69 = load ptr, ptr %5, align 8
  %70 = getelementptr inbounds nuw %struct._packet_info, ptr %69, i32 0, i32 51
  %71 = load ptr, ptr %70, align 8
  %72 = load ptr, ptr %6, align 8
  %73 = load i32, ptr %8, align 4
  %74 = load i32, ptr %11, align 4
  %75 = load i32, ptr %8, align 4
  %76 = sub i32 %74, %75
  %77 = call ptr @tvb_get_string_enc(ptr noundef %71, ptr noundef %72, i32 noundef %73, i32 noundef %76, i32 noundef 0)
  store ptr %77, ptr %13, align 8
  call void @llvm.lifetime.start.p0(i64 8, ptr %17) #11
  %78 = load ptr, ptr %5, align 8
  %79 = getelementptr inbounds nuw %struct._packet_info, ptr %78, i32 0, i32 51
  %80 = load ptr, ptr %79, align 8
  %81 = call noalias ptr @wmem_alloc(ptr noundef %80, i64 noundef 4) #12
  store ptr %81, ptr %17, align 8
  %82 = load ptr, ptr %13, align 8
  %83 = load ptr, ptr %17, align 8
  %84 = call zeroext i1 @ws_inet_pton4(ptr noundef %82, ptr noundef %83)
  br i1 %84, label %85, label %87

85:                                               ; preds = %68
  %86 = load ptr, ptr %17, align 8
  call void @set_address(ptr noundef %9, i32 noundef 2, i32 noundef 4, ptr noundef %86)
  br label %87

87:                                               ; preds = %85, %68
  call void @llvm.lifetime.end.p0(i64 8, ptr %17) #11
  br label %88

88:                                               ; preds = %87, %67
  %89 = load ptr, ptr %6, align 8
  %90 = load i32, ptr %11, align 4
  %91 = call i32 @tvb_find_uint8(ptr noundef %89, i32 noundef %90, i32 noundef -1, i8 noundef zeroext 44)
  store i32 %91, ptr %12, align 4
  call void @llvm.lifetime.start.p0(i64 4, ptr %18) #11
  %92 = load i32, ptr %12, align 4
  %93 = icmp eq i32 %92, -1
  br i1 %93, label %94, label %99

94:                                               ; preds = %88
  %95 = load ptr, ptr %6, align 8
  %96 = load i32, ptr %11, align 4
  %97 = add i32 %96, 1
  %98 = call i32 @tvb_reported_length_remaining(ptr noundef %95, i32 noundef %97)
  store i32 %98, ptr %18, align 4
  br label %104

99:                                               ; preds = %88
  %100 = load i32, ptr %12, align 4
  %101 = load i32, ptr %11, align 4
  %102 = add i32 %101, 1
  %103 = sub i32 %100, %102
  store i32 %103, ptr %18, align 4
  br label %104

104:                                              ; preds = %99, %94
  %105 = load ptr, ptr %5, align 8
  %106 = getelementptr inbounds nuw %struct._packet_info, ptr %105, i32 0, i32 51
  %107 = load ptr, ptr %106, align 8
  %108 = load ptr, ptr %6, align 8
  %109 = load i32, ptr %11, align 4
  %110 = add i32 %109, 1
  %111 = load i32, ptr %18, align 4
  %112 = call ptr @tvb_get_string_enc(ptr noundef %107, ptr noundef %108, i32 noundef %110, i32 noundef %111, i32 noundef 0)
  store ptr %112, ptr %14, align 8
  %113 = load ptr, ptr %14, align 8
  %114 = call zeroext i1 @ws_strtou16(ptr noundef %113, ptr noundef null, ptr noundef %10)
  br i1 %114, label %124, label %115

115:                                              ; preds = %104
  %116 = load ptr, ptr %7, align 8
  %117 = load ptr, ptr %5, align 8
  %118 = load ptr, ptr %6, align 8
  %119 = load i32, ptr %11, align 4
  %120 = add i32 %119, 1
  %121 = load i32, ptr %18, align 4
  %122 = load ptr, ptr %14, align 8
  %123 = call ptr (ptr, ptr, ptr, ptr, i32, i32, ptr, ...) @proto_tree_add_expert_format(ptr noundef %116, ptr noundef %117, ptr noundef @ei_iscsi_keyvalue_invalid, ptr noundef %118, i32 noundef %120, i32 noundef %121, ptr noundef @.str.566, ptr noundef %122)
  store i32 1, ptr %15, align 4
  br label %153

124:                                              ; preds = %104
  %125 = call zeroext i1 @addresses_equal(ptr noundef %9, ptr noundef @null_address)
  br i1 %125, label %152, label %126

126:                                              ; preds = %124
  %127 = load ptr, ptr %5, align 8
  %128 = getelementptr inbounds nuw %struct._packet_info, ptr %127, i32 0, i32 8
  %129 = load ptr, ptr %128, align 8
  %130 = getelementptr inbounds nuw %struct._frame_data, ptr %129, i32 0, i32 11
  %131 = load i16, ptr %130, align 1
  %132 = lshr i16 %131, 3
  %133 = and i16 %132, 1
  %134 = zext i16 %133 to i32
  %135 = icmp ne i32 %134, 0
  br i1 %135, label %152, label %136

136:                                              ; preds = %126
  call void @llvm.lifetime.start.p0(i64 8, ptr %19) #11
  %137 = load ptr, ptr %5, align 8
  %138 = getelementptr inbounds nuw %struct._packet_info, ptr %137, i32 0, i32 3
  %139 = load i32, ptr %138, align 4
  %140 = load i16, ptr %10, align 2
  %141 = zext i16 %140 to i32
  %142 = call ptr @conversation_new(i32 noundef %139, ptr noundef %9, ptr noundef @null_address, i32 noundef 2, i32 noundef %141, i32 noundef 0, i32 noundef 3)
  store ptr %142, ptr %19, align 8
  %143 = load ptr, ptr %19, align 8
  %144 = icmp eq ptr %143, null
  br i1 %144, label %145, label %146

145:                                              ; preds = %136
  store i32 1, ptr %15, align 4
  br label %149

146:                                              ; preds = %136
  %147 = load ptr, ptr %19, align 8
  %148 = load ptr, ptr @iscsi_handle, align 8
  call void @conversation_set_dissector(ptr noundef %147, ptr noundef %148)
  store i32 0, ptr %15, align 4
  br label %149

149:                                              ; preds = %146, %145
  call void @llvm.lifetime.end.p0(i64 8, ptr %19) #11
  %150 = load i32, ptr %15, align 4
  switch i32 %150, label %153 [
    i32 0, label %151
  ]

151:                                              ; preds = %149
  br label %152

152:                                              ; preds = %151, %126, %124
  store i32 0, ptr %15, align 4
  br label %153

153:                                              ; preds = %152, %149, %115
  call void @llvm.lifetime.end.p0(i64 4, ptr %18) #11
  br label %154

154:                                              ; preds = %153, %47, %40, %25
  call void @llvm.lifetime.end.p0(i64 8, ptr %14) #11
  call void @llvm.lifetime.end.p0(i64 8, ptr %13) #11
  call void @llvm.lifetime.end.p0(i64 4, ptr %12) #11
  call void @llvm.lifetime.end.p0(i64 4, ptr %11) #11
  call void @llvm.lifetime.end.p0(i64 2, ptr %10) #11
  call void @llvm.lifetime.end.p0(i64 24, ptr %9) #11
  %155 = load i32, ptr %15, align 4
  switch i32 %155, label %157 [
    i32 0, label %156
    i32 1, label %156
  ]

156:                                              ; preds = %154, %154
  ret void

157:                                              ; preds = %154
  unreachable
}