; Function Attrs: null_pointer_is_valid sspstrong uwtable
define internal fastcc void @iscsi_dissect_TargetAddress(ptr noundef %0, ptr noundef %1, ptr noundef %2, i32 noundef range(i32 1, 0) %3) unnamed_addr #0 {
  %5 = alloca %struct._address, align 8
  %6 = alloca i16, align 2
  call void @llvm.lifetime.start.p0(i64 24, ptr nonnull %5) #13
  call void @llvm.memset.p0.i64(ptr noundef nonnull align 8 dereferenceable(24) %5, i8 0, i64 24, i1 false)
  call void @llvm.lifetime.start.p0(i64 2, ptr nonnull %6) #13
  %7 = tail call i32 @tvb_find_uint8(ptr noundef %1, i32 noundef %3, i32 noundef -1, i8 noundef zeroext 58)
  %8 = icmp eq i32 %7, -1
  br i1 %8, label %.critedge, label %9

9:                                                ; preds = %4
  %10 = tail call zeroext i8 @tvb_get_uint8(ptr noundef %1, i32 noundef %3)
  %11 = icmp eq i8 %10, 91
  br i1 %11, label %12, label %27

12:                                               ; preds = %9
  %13 = add i32 %3, 1
  %14 = tail call i32 @tvb_find_uint8(ptr noundef %1, i32 noundef %13, i32 noundef -1, i8 noundef zeroext 93)
  %15 = icmp eq i32 %14, -1
  br i1 %15, label %.critedge, label %16

16:                                               ; preds = %12
  %17 = tail call i32 @tvb_find_uint8(ptr noundef %1, i32 noundef %14, i32 noundef -1, i8 noundef zeroext 58)
  %18 = icmp eq i32 %17, -1
  br i1 %18, label %.critedge, label %19

19:                                               ; preds = %16
  %20 = getelementptr inbounds nuw i8, ptr %0, i64 408
  %21 = load ptr, ptr %20, align 8
  %22 = tail call noalias dereferenceable_or_null(16) ptr @wmem_alloc(ptr noundef %21, i64 noundef 16) #11
  %23 = load ptr, ptr %20, align 8
  %24 = sub i32 %14, %13
  %25 = tail call ptr @tvb_get_string_enc(ptr noundef %23, ptr noundef %1, i32 noundef %13, i32 noundef %24, i32 noundef 0)
  %26 = tail call zeroext i1 @ws_inet_pton6(ptr noundef %25, ptr noundef %22)
  br i1 %26, label %.sink.split, label %38

27:                                               ; preds = %9
  %28 = getelementptr inbounds nuw i8, ptr %0, i64 408
  %29 = load ptr, ptr %28, align 8
  %30 = sub i32 %7, %3
  %31 = tail call ptr @tvb_get_string_enc(ptr noundef %29, ptr noundef %1, i32 noundef %3, i32 noundef %30, i32 noundef 0)
  %32 = load ptr, ptr %28, align 8
  %33 = tail call noalias dereferenceable_or_null(4) ptr @wmem_alloc(ptr noundef %32, i64 noundef 4) #11
  %34 = tail call zeroext i1 @ws_inet_pton4(ptr noundef %31, ptr noundef %33)
  br i1 %34, label %.sink.split, label %38

.sink.split:                                      ; preds = %27, %19
  %.sink64 = phi i32 [ 3, %19 ], [ 2, %27 ]
  %.sink62 = phi i32 [ 16, %19 ], [ 4, %27 ]
  %.sink = phi ptr [ %22, %19 ], [ %33, %27 ]
  %.052.ph = phi i32 [ %17, %19 ], [ %7, %27 ]
  store i32 %.sink64, ptr %5, align 8
  %35 = getelementptr inbounds nuw i8, ptr %5, i64 4
  store i32 %.sink62, ptr %35, align 4
  %36 = getelementptr inbounds nuw i8, ptr %5, i64 8
  store ptr %.sink, ptr %36, align 8
  %37 = getelementptr inbounds nuw i8, ptr %5, i64 16
  store ptr null, ptr %37, align 8
  br label %38

38:                                               ; preds = %.sink.split, %27, %19
  %.052 = phi i32 [ %17, %19 ], [ %7, %27 ], [ %.052.ph, %.sink.split ]
  %39 = tail call i32 @tvb_find_uint8(ptr noundef %1, i32 noundef %.052, i32 noundef -1, i8 noundef zeroext 44)
  %40 = icmp eq i32 %39, -1
  br i1 %40, label %41, label %44

41:                                               ; preds = %38
  %42 = add nuw i32 %.052, 1
  %43 = tail call i32 @tvb_reported_length_remaining(ptr noundef %1, i32 noundef %42)
  br label %46

44:                                               ; preds = %38
  %.neg = xor i32 %.052, -1
  %45 = add i32 %39, %.neg
  %.pre = add nuw i32 %.052, 1
  br label %46

46:                                               ; preds = %44, %41
  %.pre-phi = phi i32 [ %.pre, %44 ], [ %42, %41 ]
  %.0 = phi i32 [ %45, %44 ], [ %43, %41 ]
  %47 = getelementptr inbounds nuw i8, ptr %0, i64 408
  %48 = load ptr, ptr %47, align 8
  %49 = tail call ptr @tvb_get_string_enc(ptr noundef %48, ptr noundef %1, i32 noundef %.pre-phi, i32 noundef %.0, i32 noundef 0)
  %50 = call zeroext i1 @ws_strtou16(ptr noundef %49, ptr noundef null, ptr noundef nonnull %6)
  br i1 %50, label %53, label %51

51:                                               ; preds = %46
  %52 = call ptr (ptr, ptr, ptr, ptr, i32, i32, ptr, ...) @proto_tree_add_expert_format(ptr noundef %2, ptr noundef %0, ptr noundef nonnull @ei_iscsi_keyvalue_invalid, ptr noundef %1, i32 noundef %.pre-phi, i32 noundef %.0, ptr noundef nonnull @.str.566, ptr noundef %49)
  br label %.critedge

53:                                               ; preds = %46
  %54 = load i32, ptr %5, align 8
  %55 = load i32, ptr @null_address, align 8
  %56 = icmp eq i32 %54, %55
  br i1 %56, label %57, label %addresses_equal.exit

57:                                               ; preds = %53
  %58 = getelementptr inbounds nuw i8, ptr %5, i64 4
  %59 = load i32, ptr %58, align 4
  %60 = load i32, ptr getelementptr inbounds nuw (i8, ptr @null_address, i64 4), align 4
  %61 = icmp eq i32 %59, %60
  br i1 %61, label %62, label %addresses_equal.exit

62:                                               ; preds = %57
  %63 = icmp eq i32 %59, 0
  br i1 %63, label %.critedge, label %64

64:                                               ; preds = %62
  %65 = getelementptr inbounds nuw i8, ptr %5, i64 8
  %66 = load ptr, ptr %65, align 8
  %67 = load ptr, ptr getelementptr inbounds nuw (i8, ptr @null_address, i64 8), align 8
  %68 = sext i32 %59 to i64
  %bcmp.i = call i32 @bcmp(ptr %66, ptr %67, i64 %68)
  %69 = icmp eq i32 %bcmp.i, 0
  br i1 %69, label %.critedge, label %addresses_equal.exit

addresses_equal.exit:                             ; preds = %64, %57, %53
  %70 = getelementptr inbounds nuw i8, ptr %0, i64 80
  %71 = load ptr, ptr %70, align 8
  %72 = getelementptr inbounds nuw i8, ptr %71, i64 57
  %73 = load i16, ptr %72, align 1
  %74 = and i16 %73, 8
  %.not = icmp eq i16 %74, 0
  br i1 %.not, label %75, label %.critedge

75:                                               ; preds = %addresses_equal.exit
  %76 = getelementptr inbounds nuw i8, ptr %0, i64 20
  %77 = load i32, ptr %76, align 4
  %78 = load i16, ptr %6, align 2
  %79 = zext i16 %78 to i32
  %80 = call ptr @conversation_new(i32 noundef %77, ptr noundef nonnull %5, ptr noundef nonnull @null_address, i32 noundef 2, i32 noundef %79, i32 noundef 0, i32 noundef 3)
  %.not59 = icmp eq ptr %80, null
  br i1 %.not59, label %.critedge, label %81

81:                                               ; preds = %75
  %82 = load ptr, ptr @iscsi_handle, align 8
  call void @conversation_set_dissector(ptr noundef nonnull %80, ptr noundef %82)
  br label %.critedge

.critedge:                                        ; preds = %62, %64, %81, %51, %addresses_equal.exit, %75, %16, %12, %4
  call void @llvm.lifetime.end.p0(i64 2, ptr nonnull %6) #13
  call void @llvm.lifetime.end.p0(i64 24, ptr nonnull %5) #13
  ret void
}